target datalayout = "e-m:e-p270:32:32-p271:32:32-p272:64:64-i64:64-i128:128-f80:128-n8:16:32:64-S128"
target triple = "x86_64-pc-linux-gnu"

%struct.AVBPrint = type { ptr, i32, i32, i32, [1 x i8], [1000 x i8] }

; Function Attrs: inlinehint nounwind uwtable
define internal i32 @av_bprint_is_complete(ptr noundef %0) #7 {
  %2 = alloca ptr, align 8
  store ptr %0, ptr %2, align 8, !tbaa !29
  %3 = load ptr, ptr %2, align 8, !tbaa !29
  %4 = getelementptr inbounds nuw %struct.AVBPrint, ptr %3, i32 0, i32 1
  %5 = load i32, ptr %4, align 8, !tbaa !31
  %6 = load ptr, ptr %2, align 8, !tbaa !29
  %7 = getelementptr inbounds nuw %struct.AVBPrint, ptr %6, i32 0, i32 2
  %8 = load i32, ptr %7, align 4, !tbaa !33
  %9 = icmp ult i32 %5, %8
  %10 = zext i1 %9 to i32
  ret i32 %10
}

; Function Attrs: nounwind uwtable
define i32 @av_escape(ptr noundef %0, ptr noundef %1, ptr noundef %2, i32 noundef %3, i32 noundef %4) #0 {
  %6 = alloca i32, align 4
  %7 = alloca ptr, align 8
  %8 = alloca ptr, align 8
  %9 = alloca ptr, align 8
  %10 = alloca i32, align 4
  %11 = alloca i32, align 4
  %12 = alloca %struct.AVBPrint, align 8
  %13 = alloca i32, align 4
  %14 = alloca i32, align 4
  store ptr %0, ptr %7, align 8, !tbaa !9
  store ptr %1, ptr %8, align 8, !tbaa !4
  store ptr %2, ptr %9, align 8, !tbaa !4
  store i32 %3, ptr %10, align 4, !tbaa !16
  store i32 %4, ptr %11, align 4, !tbaa !16
  call void @llvm.lifetime.start.p0(i64 1024, ptr %12) #11
  call void @llvm.lifetime.start.p0(i64 4, ptr %13) #11
  call void @av_bprint_init(ptr noundef %12, i32 noundef 1, i32 noundef 2147483647)
  %15 = load ptr, ptr %8, align 8, !tbaa !4
  %16 = load ptr, ptr %9, align 8, !tbaa !4
  %17 = load i32, ptr %10, align 4, !tbaa !16
  %18 = load i32, ptr %11, align 4, !tbaa !16
  call void @av_bprint_escape(ptr noundef %12, ptr noundef %15, ptr noundef %16, i32 noundef %17, i32 noundef %18)
  %19 = call i32 @av_bprint_is_complete(ptr noundef %12)
  %20 = icmp ne i32 %19, 0
  br i1 %20, label %23, label %21

21:                                               ; preds = %5
  %22 = call i32 @av_bprint_finalize(ptr noundef %12, ptr noundef null)
  store i32 -12, ptr %6, align 4
  store i32 1, ptr %14, align 4
  br label %32

23:                                               ; preds = %5
  %24 = load ptr, ptr %7, align 8, !tbaa !9
  %25 = call i32 @av_bprint_finalize(ptr noundef %12, ptr noundef %24)
  store i32 %25, ptr %13, align 4, !tbaa !16
  %26 = icmp slt i32 %25, 0
  br i1 %26, label %27, label %29

27:                                               ; preds = %23
  %28 = load i32, ptr %13, align 4, !tbaa !16
  store i32 %28, ptr %6, align 4
  store i32 1, ptr %14, align 4
  br label %32

29:                                               ; preds = %23
  %30 = getelementptr inbounds nuw %struct.AVBPrint, ptr %12, i32 0, i32 1
  %31 = load i32, ptr %30, align 8, !tbaa !31
  store i32 %31, ptr %6, align 4
  store i32 1, ptr %14, align 4
  br label %32

32:                                               ; preds = %29, %27, %21
  call void @llvm.lifetime.end.p0(i64 4, ptr %13) #11
  call void @llvm.lifetime.end.p0(i64 1024, ptr %12) #11
  %33 = load i32, ptr %6, align 4
  ret i32 %33
}