; Function Attrs: nounwind uwtable
define i32 @av_escape(ptr noundef %0, ptr noundef %1, ptr noundef %2, i32 noundef %3, i32 noundef %4) local_unnamed_addr #9 {
  %6 = alloca %struct.AVBPrint, align 8
  call void @llvm.lifetime.start.p0(i64 1024, ptr nonnull %6) #19
  call void @av_bprint_init(ptr noundef nonnull %6, i32 noundef 1, i32 noundef 2147483647) #19
  call void @av_bprint_escape(ptr noundef nonnull %6, ptr noundef %1, ptr noundef %2, i32 noundef %3, i32 noundef %4) #19
  %7 = getelementptr inbounds nuw i8, ptr %6, i64 8
  %.val = load i32, ptr %7, align 8, !tbaa !22
  %8 = getelementptr inbounds nuw i8, ptr %6, i64 12
  %.val7 = load i32, ptr %8, align 4, !tbaa !25
  %.not = icmp ult i32 %.val, %.val7
  br i1 %.not, label %11, label %9

9:                                                ; preds = %5
  %10 = call i32 @av_bprint_finalize(ptr noundef nonnull %6, ptr noundef null) #19
  br label %15

11:                                               ; preds = %5
  %12 = call i32 @av_bprint_finalize(ptr noundef nonnull %6, ptr noundef %0) #19
  %13 = icmp slt i32 %12, 0
  %14 = load i32, ptr %7, align 8
  %spec.select = select i1 %13, i32 %12, i32 %14
  br label %15

15:                                               ; preds = %11, %9
  %.0 = phi i32 [ -12, %9 ], [ %spec.select, %11 ]
  call void @llvm.lifetime.end.p0(i64 1024, ptr nonnull %6) #19
  ret i32 %.0
}